
addrTest:     file format elf64-x86-64

Contents of the .eh_frame section:


00000000 0000000000000014 00000000 CIE
  Version:               1
  Augmentation:          "zR"
  Code alignment factor: 1
  Data alignment factor: -8
  Return address column: 16
  Augmentation data:     1b
  DW_CFA_def_cfa: r7 (rsp) ofs 8
  DW_CFA_offset: r16 (rip) at cfa-8
  DW_CFA_nop
  DW_CFA_nop

00000018 0000000000000010 0000001c FDE cie=00000000 pc=00000000004010d0..00000000004010ff
  DW_CFA_advance_loc: 4 to 00000000004010d4
  DW_CFA_undefined: r16 (rip)

0000002c 0000000000000010 00000030 FDE cie=00000000 pc=0000000000401100..0000000000401105
  DW_CFA_nop
  DW_CFA_nop
  DW_CFA_nop

00000040 0000000000000024 00000044 FDE cie=00000000 pc=0000000000401020..0000000000401040
  DW_CFA_def_cfa_offset: 16
  DW_CFA_advance_loc: 6 to 0000000000401026
  DW_CFA_def_cfa_offset: 24
  DW_CFA_advance_loc: 10 to 0000000000401030
  DW_CFA_def_cfa_expression (DW_OP_breg7 (rsp): 8; DW_OP_breg16 (rip): 0; DW_OP_lit15; DW_OP_and; DW_OP_lit11; DW_OP_ge; DW_OP_lit3; DW_OP_shl; DW_OP_plus)
  DW_CFA_nop
  DW_CFA_nop
  DW_CFA_nop
  DW_CFA_nop

00000068 0000000000000010 0000006c FDE cie=00000000 pc=00000000004011c0..00000000004011f7
  DW_CFA_nop
  DW_CFA_nop
  DW_CFA_nop

0000007c 0000000000000010 00000080 FDE cie=00000000 pc=0000000000401200..0000000000401246
  DW_CFA_nop
  DW_CFA_nop
  DW_CFA_nop

00000090 0000000000000024 00000094 FDE cie=00000000 pc=0000000000401040..00000000004010d0
  DW_CFA_advance_loc: 1 to 0000000000401041
  DW_CFA_def_cfa_offset: 16
  DW_CFA_offset: r6 (rbp) at cfa-16
  DW_CFA_advance_loc: 6 to 0000000000401047
  DW_CFA_def_cfa_offset: 24
  DW_CFA_offset: r3 (rbx) at cfa-24
  DW_CFA_advance_loc: 4 to 000000000040104b
  DW_CFA_def_cfa_offset: 32
  DW_CFA_advance_loc1: 130 to 00000000004010cd
  DW_CFA_def_cfa_offset: 24
  DW_CFA_advance_loc: 1 to 00000000004010ce
  DW_CFA_def_cfa_offset: 16
  DW_CFA_advance_loc: 1 to 00000000004010cf
  DW_CFA_def_cfa_offset: 8

000000b8 0000000000000044 000000bc FDE cie=00000000 pc=0000000000401250..00000000004012b5
  DW_CFA_advance_loc: 6 to 0000000000401256
  DW_CFA_def_cfa_offset: 16
  DW_CFA_offset: r15 (r15) at cfa-16
  DW_CFA_advance_loc: 9 to 000000000040125f
  DW_CFA_def_cfa_offset: 24
  DW_CFA_offset: r14 (r14) at cfa-24
  DW_CFA_advance_loc: 5 to 0000000000401264
  DW_CFA_def_cfa_offset: 32
  DW_CFA_offset: r13 (r13) at cfa-32
  DW_CFA_advance_loc: 5 to 0000000000401269
  DW_CFA_def_cfa_offset: 40
  DW_CFA_offset: r12 (r12) at cfa-40
  DW_CFA_advance_loc: 4 to 000000000040126d
  DW_CFA_def_cfa_offset: 48
  DW_CFA_offset: r6 (rbp) at cfa-48
  DW_CFA_advance_loc: 8 to 0000000000401275
  DW_CFA_def_cfa_offset: 56
  DW_CFA_offset: r3 (rbx) at cfa-56
  DW_CFA_advance_loc: 7 to 000000000040127c
  DW_CFA_def_cfa_offset: 64
  DW_CFA_advance_loc: 46 to 00000000004012aa
  DW_CFA_def_cfa_offset: 56
  DW_CFA_advance_loc: 1 to 00000000004012ab
  DW_CFA_def_cfa_offset: 48
  DW_CFA_advance_loc: 1 to 00000000004012ac
  DW_CFA_def_cfa_offset: 40
  DW_CFA_advance_loc: 2 to 00000000004012ae
  DW_CFA_def_cfa_offset: 32
  DW_CFA_advance_loc: 2 to 00000000004012b0
  DW_CFA_def_cfa_offset: 24
  DW_CFA_advance_loc: 2 to 00000000004012b2
  DW_CFA_def_cfa_offset: 16
  DW_CFA_advance_loc: 2 to 00000000004012b4
  DW_CFA_def_cfa_offset: 8
  DW_CFA_nop

00000100 0000000000000010 00000104 FDE cie=00000000 pc=00000000004012c0..00000000004012c5
  DW_CFA_nop
  DW_CFA_nop
  DW_CFA_nop

00000114 ZERO terminator


